; Function Attrs: nounwind uwtable
define dso_local range(i32 -1, 9) i32 @rdbSaveBinaryDoubleValue(ptr noundef %0, double noundef %1) local_unnamed_addr #0 {
  %3 = alloca double, align 8
  store double %1, ptr %3, align 8, !tbaa !69
  %.not.i = icmp eq ptr %0, null
  br i1 %.not.i, label %rdbWriteRaw.exit, label %4

4:                                                ; preds = %2
  %5 = getelementptr inbounds nuw i8, ptr %0, i64 48
  %6 = load i64, ptr %5, align 8, !tbaa !53
  %7 = and i64 %6, 6
  %.not.i.i = icmp eq i64 %7, 0
  br i1 %.not.i.i, label %.preheader.i.i, label %rdbWriteRaw.exit

.preheader.i.i:                                   ; preds = %4
  %8 = getelementptr inbounds nuw i8, ptr %0, i64 64
  %9 = getelementptr inbounds nuw i8, ptr %0, i64 32
  %10 = getelementptr inbounds nuw i8, ptr %0, i64 8
  %11 = getelementptr inbounds nuw i8, ptr %0, i64 56
  br label %12

12:                                               ; preds = %24, %.preheader.i.i
  %.02539.i.i = phi i64 [ 8, %.preheader.i.i ], [ %26, %24 ]
  %.02738.i.i = phi ptr [ %3, %.preheader.i.i ], [ %25, %24 ]
  %13 = load i64, ptr %8, align 8, !tbaa !55
  %.not32.not.i.i = icmp eq i64 %13, 0
  %14 = call i64 @llvm.umin.i64(i64 %13, i64 %.02539.i.i)
  %15 = select i1 %.not32.not.i.i, i64 %.02539.i.i, i64 %14
  %16 = load ptr, ptr %9, align 8, !tbaa !56
  %.not33.i.i = icmp eq ptr %16, null
  br i1 %.not33.i.i, label %18, label %17

17:                                               ; preds = %12
  call void %16(ptr noundef nonnull %0, ptr noundef %.02738.i.i, i64 noundef %15) #23
  br label %18

18:                                               ; preds = %17, %12
  %19 = load ptr, ptr %10, align 8, !tbaa !57
  %20 = call i64 %19(ptr noundef nonnull %0, ptr noundef %.02738.i.i, i64 noundef %15) #23
  %21 = icmp eq i64 %20, 0
  br i1 %21, label %.thread.i.i, label %24

.thread.i.i:                                      ; preds = %18
  %22 = load i64, ptr %5, align 8, !tbaa !53
  %23 = or i64 %22, 2
  store i64 %23, ptr %5, align 8, !tbaa !53
  br label %rdbWriteRaw.exit

24:                                               ; preds = %18
  %25 = getelementptr inbounds nuw i8, ptr %.02738.i.i, i64 %15
  %26 = sub i64 %.02539.i.i, %15
  %27 = load i64, ptr %11, align 8, !tbaa !58
  %28 = add i64 %27, %15
  store i64 %28, ptr %11, align 8, !tbaa !58
  %.not31.i.i = icmp eq i64 %26, 0
  br i1 %.not31.i.i, label %rdbWriteRaw.exit, label %12

rdbWriteRaw.exit:                                 ; preds = %24, %2, %4, %.thread.i.i
  %.0.i = phi i32 [ 8, %2 ], [ -1, %4 ], [ -1, %.thread.i.i ], [ 8, %24 ]
  ret i32 %.0.i
}